; Function Attrs: mustprogress nounwind uwtable
define hidden void @_ZN16PhaseMacroExpand21expand_allocate_arrayEP17AllocateArrayNode(ptr noundef nonnull align 8 dereferenceable(97) %0, ptr noundef nonnull %1) local_unnamed_addr #0 align 2 {
  %3 = getelementptr inbounds i8, ptr %1, i64 8
  %4 = load ptr, ptr %3, align 8
  %5 = getelementptr inbounds i8, ptr %4, i64 64
  %6 = load ptr, ptr %5, align 8
  %7 = getelementptr inbounds i8, ptr %4, i64 72
  %8 = load ptr, ptr %7, align 8
  %9 = tail call noundef ptr @_ZN12AllocateNode14initializationEv(ptr noundef nonnull align 8 dereferenceable(131) %1) #8
  %10 = load ptr, ptr %3, align 8
  %11 = getelementptr inbounds i8, ptr %10, i64 48
  %12 = load ptr, ptr %11, align 8
  %13 = getelementptr inbounds i8, ptr %0, i64 16
  %14 = load ptr, ptr %13, align 8
  %15 = getelementptr inbounds i8, ptr %14, i64 40
  %16 = load ptr, ptr %15, align 8
  %17 = getelementptr inbounds i8, ptr %12, i64 40
  %18 = load i32, ptr %17, align 8
  %19 = getelementptr inbounds i8, ptr %16, i64 16
  %20 = load ptr, ptr %19, align 8
  %21 = zext i32 %18 to i64
  %22 = getelementptr inbounds ptr, ptr %20, i64 %21
  %23 = load ptr, ptr %22, align 8
  %24 = getelementptr inbounds i8, ptr %23, i64 16
  %25 = load i32, ptr %24, align 8
  %26 = icmp eq i32 %25, 26
  %..i = select i1 %26, ptr %23, ptr null
  %.not = icmp eq ptr %9, null
  br i1 %.not, label %41, label %27

27:                                               ; preds = %2
  %28 = getelementptr inbounds i8, ptr %9, i64 68
  %29 = load i32, ptr %28, align 4
  %30 = and i32 %29, 2
  %31 = icmp ne i32 %30, 0
  %32 = icmp ne ptr %..i, null
  %or.cond = and i1 %32, %31
  br i1 %or.cond, label %33, label %41

33:                                               ; preds = %27
  %34 = getelementptr inbounds i8, ptr %..i, i64 64
  %35 = load ptr, ptr %34, align 8
  %36 = getelementptr inbounds i8, ptr %35, i64 16
  %37 = load i32, ptr %36, align 8
  %38 = add i32 %37, -27
  %or.cond.i = icmp ult i32 %38, -3
  %39 = icmp eq ptr %35, null
  %40 = or i1 %39, %or.cond.i
  br i1 %40, label %42, label %41

41:                                               ; preds = %33, %27, %2
  br label %42

42:                                               ; preds = %33, %41
  %.0.in = phi ptr [ @_ZN11OptoRuntime15_new_array_JavaE, %41 ], [ @_ZN11OptoRuntime22_new_array_nozero_JavaE, %33 ]
  %.0 = load ptr, ptr %.0.in, align 8
  %43 = tail call noundef ptr @_ZN11OptoRuntime14new_array_TypeEv() #8
  tail call void @_ZN16PhaseMacroExpand22expand_allocate_commonEP12AllocateNodeP4NodePK8TypeFuncPhS3_(ptr noundef nonnull align 8 dereferenceable(97) %0, ptr noundef nonnull %1, ptr noundef %6, ptr noundef %43, ptr noundef %.0, ptr noundef %8)
  ret void
}